target datalayout = "e-m:e-p270:32:32-p271:32:32-p272:64:64-i64:64-i128:128-f80:128-n8:16:32:64-S128"
target triple = "x86_64-pc-linux-gnu"

%struct.Abc_Ntk_t_ = type { i32, i32, ptr, ptr, ptr, ptr, ptr, ptr, ptr, ptr, ptr, ptr, ptr, [11 x i32], i32, i32, i32, i32, ptr, i32, ptr, ptr, i32, i32, i32, double, i32, %struct.Vec_Int_t_, ptr, ptr, ptr, ptr, ptr, float, i32, ptr, ptr, ptr, ptr, ptr, ptr, ptr, ptr, ptr, ptr, ptr, ptr, ptr, ptr, ptr, ptr, ptr, ptr, ptr, ptr, ptr }
%struct.Vec_Int_t_ = type { i32, i32, ptr }
%struct.Abc_ManTime_t_ = type { %struct.Abc_Time_t_, %struct.Abc_Time_t_, ptr, ptr, %struct.Abc_Time_t_, %struct.Abc_Time_t_, ptr, ptr }
%struct.Abc_Time_t_ = type { float, float }
%struct.Abc_Obj_t_ = type { ptr, ptr, i32, i32, %struct.Vec_Int_t_, %struct.Vec_Int_t_, %union.anon, %union.anon.0 }
%union.anon = type { ptr }
%union.anon.0 = type { ptr }
%struct.Vec_Ptr_t_ = type { i32, i32, ptr }

; Function Attrs: nounwind uwtable
define internal ptr @Abc_NodeRequired(ptr noundef %0) #0 {
  %2 = alloca ptr, align 8
  store ptr %0, ptr %2, align 8
  %3 = load ptr, ptr %2, align 8
  %4 = getelementptr inbounds %struct.Abc_Obj_t_, ptr %3, i32 0, i32 0
  %5 = load ptr, ptr %4, align 8
  %6 = getelementptr inbounds %struct.Abc_Ntk_t_, ptr %5, i32 0, i32 31
  %7 = load ptr, ptr %6, align 8
  %8 = getelementptr inbounds %struct.Abc_ManTime_t_, ptr %7, i32 0, i32 3
  %9 = load ptr, ptr %8, align 8
  %10 = getelementptr inbounds %struct.Vec_Ptr_t_, ptr %9, i32 0, i32 2
  %11 = load ptr, ptr %10, align 8
  %12 = load ptr, ptr %2, align 8
  %13 = getelementptr inbounds %struct.Abc_Obj_t_, ptr %12, i32 0, i32 2
  %14 = load i32, ptr %13, align 8
  %15 = sext i32 %14 to i64
  %16 = getelementptr inbounds ptr, ptr %11, i64 %15
  %17 = load ptr, ptr %16, align 8
  ret ptr %17
}

; Function Attrs: nounwind uwtable
define internal ptr @Abc_NodeArrival(ptr noundef %0) #0 {
  %2 = alloca ptr, align 8
  store ptr %0, ptr %2, align 8
  %3 = load ptr, ptr %2, align 8
  %4 = getelementptr inbounds %struct.Abc_Obj_t_, ptr %3, i32 0, i32 0
  %5 = load ptr, ptr %4, align 8
  %6 = getelementptr inbounds %struct.Abc_Ntk_t_, ptr %5, i32 0, i32 31
  %7 = load ptr, ptr %6, align 8
  %8 = getelementptr inbounds %struct.Abc_ManTime_t_, ptr %7, i32 0, i32 2
  %9 = load ptr, ptr %8, align 8
  %10 = getelementptr inbounds %struct.Vec_Ptr_t_, ptr %9, i32 0, i32 2
  %11 = load ptr, ptr %10, align 8
  %12 = load ptr, ptr %2, align 8
  %13 = getelementptr inbounds %struct.Abc_Obj_t_, ptr %12, i32 0, i32 2
  %14 = load i32, ptr %13, align 8
  %15 = sext i32 %14 to i64
  %16 = getelementptr inbounds ptr, ptr %11, i64 %15
  %17 = load ptr, ptr %16, align 8
  ret ptr %17
}

; Function Attrs: nounwind uwtable
define internal ptr @Vec_PtrEntry(ptr noundef %0, i32 noundef %1) #0 {
  %3 = alloca ptr, align 8
  %4 = alloca i32, align 4
  store ptr %0, ptr %3, align 8
  store i32 %1, ptr %4, align 4
  %5 = load ptr, ptr %3, align 8
  %6 = getelementptr inbounds %struct.Vec_Ptr_t_, ptr %5, i32 0, i32 2
  %7 = load ptr, ptr %6, align 8
  %8 = load i32, ptr %4, align 4
  %9 = sext i32 %8 to i64
  %10 = getelementptr inbounds ptr, ptr %7, i64 %9
  %11 = load ptr, ptr %10, align 8
  ret ptr %11
}

; Function Attrs: nounwind uwtable
define internal i32 @Vec_PtrSize(ptr noundef %0) #0 {
  %2 = alloca ptr, align 8
  store ptr %0, ptr %2, align 8
  %3 = load ptr, ptr %2, align 8
  %4 = getelementptr inbounds %struct.Vec_Ptr_t_, ptr %3, i32 0, i32 1
  %5 = load i32, ptr %4, align 4
  ret i32 %5
}

; Function Attrs: nounwind uwtable
define ptr @Abc_NodeReadRequired(ptr noundef %0) #0 {
  %2 = alloca ptr, align 8
  store ptr %0, ptr %2, align 8
  %3 = load ptr, ptr %2, align 8
  %4 = call ptr @Abc_NodeRequired(ptr noundef %3)
  ret ptr %4
}

; Function Attrs: nounwind uwtable
define internal ptr @Abc_NtkCo(ptr noundef %0, i32 noundef %1) #0 {
  %3 = alloca ptr, align 8
  %4 = alloca i32, align 4
  store ptr %0, ptr %3, align 8
  store i32 %1, ptr %4, align 4
  %5 = load ptr, ptr %3, align 8
  %6 = getelementptr inbounds %struct.Abc_Ntk_t_, ptr %5, i32 0, i32 9
  %7 = load ptr, ptr %6, align 8
  %8 = load i32, ptr %4, align 4
  %9 = call ptr @Vec_PtrEntry(ptr noundef %7, i32 noundef %8)
  ret ptr %9
}

; Function Attrs: nounwind uwtable
define internal i32 @Abc_NtkCoNum(ptr noundef %0) #0 {
  %2 = alloca ptr, align 8
  store ptr %0, ptr %2, align 8
  %3 = load ptr, ptr %2, align 8
  %4 = getelementptr inbounds %struct.Abc_Ntk_t_, ptr %3, i32 0, i32 9
  %5 = load ptr, ptr %4, align 8
  %6 = call i32 @Vec_PtrSize(ptr noundef %5)
  ret i32 %6
}

; Function Attrs: nounwind uwtable
define ptr @Abc_NodeReadArrival(ptr noundef %0) #0 {
  %2 = alloca ptr, align 8
  store ptr %0, ptr %2, align 8
  %3 = load ptr, ptr %2, align 8
  %4 = call ptr @Abc_NodeArrival(ptr noundef %3)
  ret ptr %4
}

; Function Attrs: nounwind uwtable
define internal ptr @Abc_NtkCi(ptr noundef %0, i32 noundef %1) #0 {
  %3 = alloca ptr, align 8
  %4 = alloca i32, align 4
  store ptr %0, ptr %3, align 8
  store i32 %1, ptr %4, align 4
  %5 = load ptr, ptr %3, align 8
  %6 = getelementptr inbounds %struct.Abc_Ntk_t_, ptr %5, i32 0, i32 8
  %7 = load ptr, ptr %6, align 8
  %8 = load i32, ptr %4, align 4
  %9 = call ptr @Vec_PtrEntry(ptr noundef %7, i32 noundef %8)
  ret ptr %9
}

; Function Attrs: nounwind uwtable
define internal i32 @Abc_NtkCiNum(ptr noundef %0) #0 {
  %2 = alloca ptr, align 8
  store ptr %0, ptr %2, align 8
  %3 = load ptr, ptr %2, align 8
  %4 = getelementptr inbounds %struct.Abc_Ntk_t_, ptr %3, i32 0, i32 8
  %5 = load ptr, ptr %4, align 8
  %6 = call i32 @Vec_PtrSize(ptr noundef %5)
  ret i32 %6
}

; Function Attrs: nounwind uwtable
define internal i32 @Abc_NtkObjNumMax(ptr noundef %0) #0 {
  %2 = alloca ptr, align 8
  store ptr %0, ptr %2, align 8
  %3 = load ptr, ptr %2, align 8
  %4 = getelementptr inbounds %struct.Abc_Ntk_t_, ptr %3, i32 0, i32 5
  %5 = load ptr, ptr %4, align 8
  %6 = call i32 @Vec_PtrSize(ptr noundef %5)
  ret i32 %6
}

; Function Attrs: nounwind uwtable
define void @Abc_NtkTimeInitialize(ptr noundef %0, ptr noundef %1) #0 {
  %3 = alloca ptr, align 8
  %4 = alloca ptr, align 8
  %5 = alloca ptr, align 8
  %6 = alloca ptr, align 8
  %7 = alloca i32, align 4
  store ptr %0, ptr %3, align 8
  store ptr %1, ptr %4, align 8
  %8 = load ptr, ptr %3, align 8
  %9 = getelementptr inbounds %struct.Abc_Ntk_t_, ptr %8, i32 0, i32 31
  %10 = load ptr, ptr %9, align 8
  %11 = icmp eq ptr %10, null
  br i1 %11, label %12, label %13

12:                                               ; preds = %2
  br label %129

13:                                               ; preds = %2
  %14 = load ptr, ptr %3, align 8
  %15 = getelementptr inbounds %struct.Abc_Ntk_t_, ptr %14, i32 0, i32 31
  %16 = load ptr, ptr %15, align 8
  %17 = load ptr, ptr %3, align 8
  %18 = call i32 @Abc_NtkObjNumMax(ptr noundef %17)
  call void @Abc_ManTimeExpand(ptr noundef %16, i32 noundef %18, i32 noundef 0)
  %19 = load ptr, ptr %4, align 8
  %20 = icmp ne ptr %19, null
  br i1 %20, label %21, label %43

21:                                               ; preds = %13
  %22 = load ptr, ptr %3, align 8
  %23 = getelementptr inbounds %struct.Abc_Ntk_t_, ptr %22, i32 0, i32 31
  %24 = load ptr, ptr %23, align 8
  %25 = getelementptr inbounds %struct.Abc_ManTime_t_, ptr %24, i32 0, i32 0
  %26 = load ptr, ptr %4, align 8
  %27 = getelementptr inbounds %struct.Abc_Ntk_t_, ptr %26, i32 0, i32 31
  %28 = load ptr, ptr %27, align 8
  %29 = getelementptr inbounds %struct.Abc_ManTime_t_, ptr %28, i32 0, i32 0
  call void @llvm.memcpy.p0.p0.i64(ptr align 8 %25, ptr align 8 %29, i64 8, i1 false)
  %30 = load ptr, ptr %3, align 8
  %31 = getelementptr inbounds %struct.Abc_Ntk_t_, ptr %30, i32 0, i32 31
  %32 = load ptr, ptr %31, align 8
  %33 = getelementptr inbounds %struct.Abc_ManTime_t_, ptr %32, i32 0, i32 1
  %34 = load ptr, ptr %4, align 8
  %35 = getelementptr inbounds %struct.Abc_Ntk_t_, ptr %34, i32 0, i32 31
  %36 = load ptr, ptr %35, align 8
  %37 = getelementptr inbounds %struct.Abc_ManTime_t_, ptr %36, i32 0, i32 1
  call void @llvm.memcpy.p0.p0.i64(ptr align 8 %33, ptr align 8 %37, i64 8, i1 false)
  %38 = load ptr, ptr %4, align 8
  %39 = getelementptr inbounds %struct.Abc_Ntk_t_, ptr %38, i32 0, i32 33
  %40 = load float, ptr %39, align 8
  %41 = load ptr, ptr %3, align 8
  %42 = getelementptr inbounds %struct.Abc_Ntk_t_, ptr %41, i32 0, i32 33
  store float %40, ptr %42, align 8
  br label %43

43:                                               ; preds = %21, %13
  %44 = load ptr, ptr %3, align 8
  %45 = getelementptr inbounds %struct.Abc_Ntk_t_, ptr %44, i32 0, i32 31
  %46 = load ptr, ptr %45, align 8
  %47 = getelementptr inbounds %struct.Abc_ManTime_t_, ptr %46, i32 0, i32 2
  %48 = load ptr, ptr %47, align 8
  %49 = getelementptr inbounds %struct.Vec_Ptr_t_, ptr %48, i32 0, i32 2
  %50 = load ptr, ptr %49, align 8
  store ptr %50, ptr %6, align 8
  store i32 0, ptr %7, align 4
  br label %51

51:                                               ; preds = %83, %43
  %52 = load i32, ptr %7, align 4
  %53 = load ptr, ptr %3, align 8
  %54 = call i32 @Abc_NtkCiNum(ptr noundef %53)
  %55 = icmp slt i32 %52, %54
  br i1 %55, label %56, label %60

56:                                               ; preds = %51
  %57 = load ptr, ptr %3, align 8
  %58 = load i32, ptr %7, align 4
  %59 = call ptr @Abc_NtkCi(ptr noundef %57, i32 noundef %58)
  store ptr %59, ptr %5, align 8
  br label %60

60:                                               ; preds = %56, %51
  %61 = phi i1 [ false, %51 ], [ true, %56 ]
  br i1 %61, label %62, label %86

62:                                               ; preds = %60
  %63 = load ptr, ptr %6, align 8
  %64 = load ptr, ptr %5, align 8
  %65 = getelementptr inbounds %struct.Abc_Obj_t_, ptr %64, i32 0, i32 2
  %66 = load i32, ptr %65, align 8
  %67 = sext i32 %66 to i64
  %68 = getelementptr inbounds ptr, ptr %63, i64 %67
  %69 = load ptr, ptr %68, align 8
  %70 = load ptr, ptr %4, align 8
  %71 = icmp ne ptr %70, null
  br i1 %71, label %72, label %77

72:                                               ; preds = %62
  %73 = load ptr, ptr %4, align 8
  %74 = load i32, ptr %7, align 4
  %75 = call ptr @Abc_NtkCi(ptr noundef %73, i32 noundef %74)
  %76 = call ptr @Abc_NodeReadArrival(ptr noundef %75)
  call void @llvm.memcpy.p0.p0.i64(ptr align 4 %69, ptr align 4 %76, i64 8, i1 false)
  br label %82

77:                                               ; preds = %62
  %78 = load ptr, ptr %3, align 8
  %79 = getelementptr inbounds %struct.Abc_Ntk_t_, ptr %78, i32 0, i32 31
  %80 = load ptr, ptr %79, align 8
  %81 = getelementptr inbounds %struct.Abc_ManTime_t_, ptr %80, i32 0, i32 0
  call void @llvm.memcpy.p0.p0.i64(ptr align 4 %69, ptr align 8 %81, i64 8, i1 false)
  br label %82

82:                                               ; preds = %77, %72
  br label %83

83:                                               ; preds = %82
  %84 = load i32, ptr %7, align 4
  %85 = add nsw i32 %84, 1
  store i32 %85, ptr %7, align 4
  br label %51, !llvm.loop !17

86:                                               ; preds = %60
  %87 = load ptr, ptr %3, align 8
  %88 = getelementptr inbounds %struct.Abc_Ntk_t_, ptr %87, i32 0, i32 31
  %89 = load ptr, ptr %88, align 8
  %90 = getelementptr inbounds %struct.Abc_ManTime_t_, ptr %89, i32 0, i32 3
  %91 = load ptr, ptr %90, align 8
  %92 = getelementptr inbounds %struct.Vec_Ptr_t_, ptr %91, i32 0, i32 2
  %93 = load ptr, ptr %92, align 8
  store ptr %93, ptr %6, align 8
  store i32 0, ptr %7, align 4
  br label %94

94:                                               ; preds = %126, %86
  %95 = load i32, ptr %7, align 4
  %96 = load ptr, ptr %3, align 8
  %97 = call i32 @Abc_NtkCoNum(ptr noundef %96)
  %98 = icmp slt i32 %95, %97
  br i1 %98, label %99, label %103

99:                                               ; preds = %94
  %100 = load ptr, ptr %3, align 8
  %101 = load i32, ptr %7, align 4
  %102 = call ptr @Abc_NtkCo(ptr noundef %100, i32 noundef %101)
  store ptr %102, ptr %5, align 8
  br label %103

103:                                              ; preds = %99, %94
  %104 = phi i1 [ false, %94 ], [ true, %99 ]
  br i1 %104, label %105, label %129

105:                                              ; preds = %103
  %106 = load ptr, ptr %6, align 8
  %107 = load ptr, ptr %5, align 8
  %108 = getelementptr inbounds %struct.Abc_Obj_t_, ptr %107, i32 0, i32 2
  %109 = load i32, ptr %108, align 8
  %110 = sext i32 %109 to i64
  %111 = getelementptr inbounds ptr, ptr %106, i64 %110
  %112 = load ptr, ptr %111, align 8
  %113 = load ptr, ptr %4, align 8
  %114 = icmp ne ptr %113, null
  br i1 %114, label %115, label %120

115:                                              ; preds = %105
  %116 = load ptr, ptr %4, align 8
  %117 = load i32, ptr %7, align 4
  %118 = call ptr @Abc_NtkCo(ptr noundef %116, i32 noundef %117)
  %119 = call ptr @Abc_NodeReadRequired(ptr noundef %118)
  call void @llvm.memcpy.p0.p0.i64(ptr align 4 %112, ptr align 4 %119, i64 8, i1 false)
  br label %125

120:                                              ; preds = %105
  %121 = load ptr, ptr %3, align 8
  %122 = getelementptr inbounds %struct.Abc_Ntk_t_, ptr %121, i32 0, i32 31
  %123 = load ptr, ptr %122, align 8
  %124 = getelementptr inbounds %struct.Abc_ManTime_t_, ptr %123, i32 0, i32 1
  call void @llvm.memcpy.p0.p0.i64(ptr align 4 %112, ptr align 8 %124, i64 8, i1 false)
  br label %125

125:                                              ; preds = %120, %115
  br label %126

126:                                              ; preds = %125
  %127 = load i32, ptr %7, align 4
  %128 = add nsw i32 %127, 1
  store i32 %128, ptr %7, align 4
  br label %94, !llvm.loop !18

129:                                              ; preds = %103, %12
  ret void
}