; Function Attrs: nounwind uwtable
define void @Abc_NtkTimeInitialize(ptr noundef captures(none) %0, ptr noundef readonly %1) local_unnamed_addr #3 {
  %3 = getelementptr inbounds nuw i8, ptr %0, i64 264
  %4 = load ptr, ptr %3, align 8
  %5 = icmp eq ptr %4, null
  br i1 %5, label %.critedge2, label %6

6:                                                ; preds = %2
  %7 = getelementptr i8, ptr %0, i64 32
  %.val = load ptr, ptr %7, align 8
  %8 = getelementptr i8, ptr %.val, i64 4
  %.val.val = load i32, ptr %8, align 4
  tail call fastcc void @Abc_ManTimeExpand(ptr noundef nonnull %4, i32 noundef %.val.val, i32 noundef 0)
  %.not = icmp eq ptr %1, null
  %9 = load ptr, ptr %3, align 8
  br i1 %.not, label %10, label %.thread

10:                                               ; preds = %6
  %11 = getelementptr inbounds nuw i8, ptr %9, i64 16
  %12 = load ptr, ptr %11, align 8
  %13 = getelementptr inbounds nuw i8, ptr %12, i64 8
  %14 = load ptr, ptr %13, align 8
  %15 = getelementptr i8, ptr %0, i64 56
  %.val3950 = load ptr, ptr %15, align 8
  %16 = getelementptr i8, ptr %.val3950, i64 4
  %.val39.val51 = load i32, ptr %16, align 4
  %17 = icmp sgt i32 %.val39.val51, 0
  br i1 %17, label %.lr.ph.split.us, label %.critedge

.thread:                                          ; preds = %6
  %18 = getelementptr inbounds nuw i8, ptr %1, i64 264
  %19 = load ptr, ptr %18, align 8
  %20 = load i64, ptr %19, align 8
  store i64 %20, ptr %9, align 8
  %21 = load ptr, ptr %3, align 8
  %22 = getelementptr inbounds nuw i8, ptr %21, i64 8
  %23 = load ptr, ptr %18, align 8
  %24 = getelementptr inbounds nuw i8, ptr %23, i64 8
  %25 = load i64, ptr %24, align 8
  store i64 %25, ptr %22, align 8
  %26 = getelementptr inbounds nuw i8, ptr %1, i64 280
  %27 = load float, ptr %26, align 8
  %28 = getelementptr inbounds nuw i8, ptr %0, i64 280
  store float %27, ptr %28, align 8
  %29 = load ptr, ptr %3, align 8
  %30 = getelementptr inbounds nuw i8, ptr %29, i64 16
  %31 = load ptr, ptr %30, align 8
  %32 = getelementptr inbounds nuw i8, ptr %31, i64 8
  %33 = load ptr, ptr %32, align 8
  %34 = getelementptr i8, ptr %0, i64 56
  %.val395071 = load ptr, ptr %34, align 8
  %35 = getelementptr i8, ptr %.val395071, i64 4
  %.val39.val5172 = load i32, ptr %35, align 4
  %36 = icmp sgt i32 %.val39.val5172, 0
  br i1 %36, label %.lr.ph.split.preheader, label %.critedge.thread

.lr.ph.split.preheader:                           ; preds = %.thread
  %37 = getelementptr i8, ptr %1, i64 56
  br label %.lr.ph.split

.lr.ph.split.us:                                  ; preds = %10, %.lr.ph.split.us
  %indvars.iv62 = phi i64 [ %indvars.iv.next63, %.lr.ph.split.us ], [ 0, %10 ]
  %.val3953.us = phi ptr [ %.val39.us, %.lr.ph.split.us ], [ %.val3950, %10 ]
  %38 = getelementptr i8, ptr %.val3953.us, i64 8
  %.val41.val.us = load ptr, ptr %38, align 8
  %39 = getelementptr inbounds nuw ptr, ptr %.val41.val.us, i64 %indvars.iv62
  %40 = load ptr, ptr %39, align 8
  %41 = getelementptr inbounds nuw i8, ptr %40, i64 16
  %42 = load i32, ptr %41, align 8
  %43 = sext i32 %42 to i64
  %44 = getelementptr inbounds ptr, ptr %14, i64 %43
  %45 = load ptr, ptr %44, align 8
  %storemerge38.in.us = load ptr, ptr %3, align 8
  %storemerge38.us = load i64, ptr %storemerge38.in.us, align 4
  store i64 %storemerge38.us, ptr %45, align 4
  %indvars.iv.next63 = add nuw nsw i64 %indvars.iv62, 1
  %.val39.us = load ptr, ptr %15, align 8
  %46 = getelementptr i8, ptr %.val39.us, i64 4
  %.val39.val.us = load i32, ptr %46, align 4
  %47 = sext i32 %.val39.val.us to i64
  %48 = icmp slt i64 %indvars.iv.next63, %47
  br i1 %48, label %.lr.ph.split.us, label %.critedge, !llvm.loop !17

.lr.ph.split:                                     ; preds = %.lr.ph.split.preheader, %.lr.ph.split
  %indvars.iv = phi i64 [ 0, %.lr.ph.split.preheader ], [ %indvars.iv.next, %.lr.ph.split ]
  %.val3953 = phi ptr [ %.val395071, %.lr.ph.split.preheader ], [ %.val39, %.lr.ph.split ]
  %49 = getelementptr i8, ptr %.val3953, i64 8
  %.val41.val = load ptr, ptr %49, align 8
  %50 = getelementptr inbounds nuw ptr, ptr %.val41.val, i64 %indvars.iv
  %51 = load ptr, ptr %50, align 8
  %52 = getelementptr inbounds nuw i8, ptr %51, i64 16
  %53 = load i32, ptr %52, align 8
  %54 = sext i32 %53 to i64
  %55 = getelementptr inbounds ptr, ptr %33, i64 %54
  %56 = load ptr, ptr %55, align 8
  %.val40 = load ptr, ptr %37, align 8
  %57 = getelementptr i8, ptr %.val40, i64 8
  %.val40.val = load ptr, ptr %57, align 8
  %58 = getelementptr inbounds nuw ptr, ptr %.val40.val, i64 %indvars.iv
  %59 = load ptr, ptr %58, align 8
  %.val.i = load ptr, ptr %59, align 8
  %60 = getelementptr i8, ptr %59, i64 16
  %.val1.i = load i32, ptr %60, align 8
  %61 = getelementptr i8, ptr %.val.i, i64 264
  %.val.val.i = load ptr, ptr %61, align 8
  %62 = getelementptr i8, ptr %.val.val.i, i64 16
  %.val.val.val.i = load ptr, ptr %62, align 8
  %63 = getelementptr i8, ptr %.val.val.val.i, i64 8
  %.val.val.val.val.i = load ptr, ptr %63, align 8
  %64 = sext i32 %.val1.i to i64
  %65 = getelementptr inbounds ptr, ptr %.val.val.val.val.i, i64 %64
  %storemerge38.in = load ptr, ptr %65, align 8
  %storemerge38 = load i64, ptr %storemerge38.in, align 4
  store i64 %storemerge38, ptr %56, align 4
  %indvars.iv.next = add nuw nsw i64 %indvars.iv, 1
  %.val39 = load ptr, ptr %34, align 8
  %66 = getelementptr i8, ptr %.val39, i64 4
  %.val39.val = load i32, ptr %66, align 4
  %67 = sext i32 %.val39.val to i64
  %68 = icmp slt i64 %indvars.iv.next, %67
  br i1 %68, label %.lr.ph.split, label %.critedge, !llvm.loop !17

.critedge:                                        ; preds = %.lr.ph.split, %.lr.ph.split.us, %10
  %69 = load ptr, ptr %3, align 8
  %70 = getelementptr inbounds nuw i8, ptr %69, i64 24
  %71 = load ptr, ptr %70, align 8
  %72 = getelementptr inbounds nuw i8, ptr %71, i64 8
  %73 = load ptr, ptr %72, align 8
  %74 = getelementptr i8, ptr %0, i64 64
  %.val4254 = load ptr, ptr %74, align 8
  %75 = getelementptr i8, ptr %.val4254, i64 4
  %.val42.val55 = load i32, ptr %75, align 4
  %76 = icmp sgt i32 %.val42.val55, 0
  br i1 %76, label %.lr.ph58, label %.critedge2

.critedge.thread:                                 ; preds = %.thread
  %77 = getelementptr i8, ptr %0, i64 64
  %.val425476 = load ptr, ptr %77, align 8
  %78 = getelementptr i8, ptr %.val425476, i64 4
  %.val42.val5577 = load i32, ptr %78, align 4
  %79 = icmp sgt i32 %.val42.val5577, 0
  br i1 %79, label %.lr.ph58.thread, label %.critedge2

.lr.ph58.thread:                                  ; preds = %.critedge.thread
  %80 = load ptr, ptr %3, align 8
  %81 = getelementptr inbounds nuw i8, ptr %80, i64 24
  %82 = load ptr, ptr %81, align 8
  %83 = getelementptr inbounds nuw i8, ptr %82, i64 8
  %84 = load ptr, ptr %83, align 8
  br label %.lr.ph58.split.preheader

.lr.ph58:                                         ; preds = %.critedge
  br i1 %.not, label %.lr.ph58.split.us, label %.lr.ph58.split.preheader

.lr.ph58.split.preheader:                         ; preds = %.lr.ph58.thread, %.lr.ph58
  %85 = phi ptr [ %84, %.lr.ph58.thread ], [ %73, %.lr.ph58 ]
  %86 = phi ptr [ %77, %.lr.ph58.thread ], [ %74, %.lr.ph58 ]
  %.val42547880 = phi ptr [ %.val425476, %.lr.ph58.thread ], [ %.val4254, %.lr.ph58 ]
  %87 = getelementptr i8, ptr %1, i64 64
  br label %.lr.ph58.split

.lr.ph58.split.us:                                ; preds = %.lr.ph58, %.lr.ph58.split.us
  %indvars.iv68 = phi i64 [ %indvars.iv.next69, %.lr.ph58.split.us ], [ 0, %.lr.ph58 ]
  %.val4257.us = phi ptr [ %.val42.us, %.lr.ph58.split.us ], [ %.val4254, %.lr.ph58 ]
  %88 = getelementptr i8, ptr %.val4257.us, i64 8
  %.val44.val.us = load ptr, ptr %88, align 8
  %89 = getelementptr inbounds nuw ptr, ptr %.val44.val.us, i64 %indvars.iv68
  %90 = load ptr, ptr %89, align 8
  %91 = getelementptr inbounds nuw i8, ptr %90, i64 16
  %92 = load i32, ptr %91, align 8
  %93 = sext i32 %92 to i64
  %94 = getelementptr inbounds ptr, ptr %73, i64 %93
  %95 = load ptr, ptr %94, align 8
  %96 = load ptr, ptr %3, align 8
  %97 = getelementptr inbounds nuw i8, ptr %96, i64 8
  %storemerge.us = load i64, ptr %97, align 4
  store i64 %storemerge.us, ptr %95, align 4
  %indvars.iv.next69 = add nuw nsw i64 %indvars.iv68, 1
  %.val42.us = load ptr, ptr %74, align 8
  %98 = getelementptr i8, ptr %.val42.us, i64 4
  %.val42.val.us = load i32, ptr %98, align 4
  %99 = sext i32 %.val42.val.us to i64
  %100 = icmp slt i64 %indvars.iv.next69, %99
  br i1 %100, label %.lr.ph58.split.us, label %.critedge2, !llvm.loop !18

.lr.ph58.split:                                   ; preds = %.lr.ph58.split.preheader, %.lr.ph58.split
  %indvars.iv65 = phi i64 [ 0, %.lr.ph58.split.preheader ], [ %indvars.iv.next66, %.lr.ph58.split ]
  %.val4257 = phi ptr [ %.val42547880, %.lr.ph58.split.preheader ], [ %.val42, %.lr.ph58.split ]
  %101 = getelementptr i8, ptr %.val4257, i64 8
  %.val44.val = load ptr, ptr %101, align 8
  %102 = getelementptr inbounds nuw ptr, ptr %.val44.val, i64 %indvars.iv65
  %103 = load ptr, ptr %102, align 8
  %104 = getelementptr inbounds nuw i8, ptr %103, i64 16
  %105 = load i32, ptr %104, align 8
  %106 = sext i32 %105 to i64
  %107 = getelementptr inbounds ptr, ptr %85, i64 %106
  %108 = load ptr, ptr %107, align 8
  %.val43 = load ptr, ptr %87, align 8
  %109 = getelementptr i8, ptr %.val43, i64 8
  %.val43.val = load ptr, ptr %109, align 8
  %110 = getelementptr inbounds nuw ptr, ptr %.val43.val, i64 %indvars.iv65
  %111 = load ptr, ptr %110, align 8
  %.val.i45 = load ptr, ptr %111, align 8
  %112 = getelementptr i8, ptr %111, i64 16
  %.val1.i46 = load i32, ptr %112, align 8
  %113 = getelementptr i8, ptr %.val.i45, i64 264
  %.val.val.i47 = load ptr, ptr %113, align 8
  %114 = getelementptr i8, ptr %.val.val.i47, i64 24
  %.val.val.val.i48 = load ptr, ptr %114, align 8
  %115 = getelementptr i8, ptr %.val.val.val.i48, i64 8
  %.val.val.val.val.i49 = load ptr, ptr %115, align 8
  %116 = sext i32 %.val1.i46 to i64
  %117 = getelementptr inbounds ptr, ptr %.val.val.val.val.i49, i64 %116
  %118 = load ptr, ptr %117, align 8
  %storemerge = load i64, ptr %118, align 4
  store i64 %storemerge, ptr %108, align 4
  %indvars.iv.next66 = add nuw nsw i64 %indvars.iv65, 1
  %.val42 = load ptr, ptr %86, align 8
  %119 = getelementptr i8, ptr %.val42, i64 4
  %.val42.val = load i32, ptr %119, align 4
  %120 = sext i32 %.val42.val to i64
  %121 = icmp slt i64 %indvars.iv.next66, %120
  br i1 %121, label %.lr.ph58.split, label %.critedge2, !llvm.loop !18

.critedge2:                                       ; preds = %.lr.ph58.split, %.lr.ph58.split.us, %.critedge.thread, %.critedge, %2
  ret void
}